; Function Attrs: nounwind uwtable
define ptr @l___private_Lean_Meta_Tactic_Grind_Inv_0__Lean_Meta_Grind_checkMatchCondParent(ptr noundef %0, ptr noundef %1, ptr noundef %2, ptr noundef %3, ptr noundef %4, ptr noundef %5, ptr noundef %6, ptr noundef %7, ptr noundef %8, ptr noundef %9, ptr noundef %10) local_unnamed_addr #0 {
  %12 = tail call ptr @l_Lean_Meta_instantiateMVarsIfMVarApp(ptr noundef %1, ptr noundef %6, ptr noundef %7, ptr noundef %8, ptr noundef %9, ptr noundef %10) #4
  %13 = getelementptr inbounds nuw i8, ptr %12, i64 8
  %14 = load ptr, ptr %13, align 8, !tbaa !4
  %15 = ptrtoint ptr %14 to i64
  %16 = and i64 %15, 1
  %.not = icmp eq i64 %16, 0
  br i1 %.not, label %17, label %lean_inc.exit61

17:                                               ; preds = %11
  %.val.i = load i32, ptr %14, align 4, !tbaa !8
  %18 = icmp sgt i32 %.val.i, 0
  br i1 %18, label %19, label %21, !prof !11

19:                                               ; preds = %17
  %20 = add nuw i32 %.val.i, 1
  store i32 %20, ptr %14, align 4, !tbaa !8
  br label %lean_inc.exit61

21:                                               ; preds = %17
  %.not.i68 = icmp eq i32 %.val.i, 0
  br i1 %.not.i68, label %lean_inc.exit61, label %22

22:                                               ; preds = %21
  tail call void @lean_inc_ref_cold(ptr noundef nonnull %14) #4
  br label %lean_inc.exit61

lean_inc.exit61:                                  ; preds = %22, %21, %19, %11
  %23 = getelementptr inbounds nuw i8, ptr %12, i64 16
  %24 = load ptr, ptr %23, align 8, !tbaa !4
  %25 = ptrtoint ptr %24 to i64
  %26 = and i64 %25, 1
  %.not72 = icmp eq i64 %26, 0
  br i1 %.not72, label %27, label %lean_inc.exit

27:                                               ; preds = %lean_inc.exit61
  %.val.i69 = load i32, ptr %24, align 4, !tbaa !8
  %28 = icmp sgt i32 %.val.i69, 0
  br i1 %28, label %29, label %31, !prof !11

29:                                               ; preds = %27
  %30 = add nuw i32 %.val.i69, 1
  store i32 %30, ptr %24, align 4, !tbaa !8
  br label %lean_inc.exit

31:                                               ; preds = %27
  %.not.i70 = icmp eq i32 %.val.i69, 0
  br i1 %.not.i70, label %lean_inc.exit, label %32

32:                                               ; preds = %31
  tail call void @lean_inc_ref_cold(ptr noundef nonnull %24) #4
  br label %lean_inc.exit

lean_inc.exit:                                    ; preds = %32, %31, %29, %lean_inc.exit61
  %33 = ptrtoint ptr %12 to i64
  %34 = and i64 %33, 1
  %.not73 = icmp eq i64 %34, 0
  br i1 %.not73, label %35, label %lean_dec.exit60

35:                                               ; preds = %lean_inc.exit
  %36 = load i32, ptr %12, align 4, !tbaa !8
  %37 = icmp sgt i32 %36, 1
  br i1 %37, label %38, label %40, !prof !11

38:                                               ; preds = %35
  %39 = add nsw i32 %36, -1
  store i32 %39, ptr %12, align 4, !tbaa !8
  br label %lean_dec.exit60

40:                                               ; preds = %35
  %.not.i = icmp eq i32 %36, 0
  br i1 %.not.i, label %lean_dec.exit60, label %41

41:                                               ; preds = %40
  tail call void @lean_dec_ref_cold(ptr noundef nonnull %12) #4
  br label %lean_dec.exit60

lean_dec.exit60:                                  ; preds = %41, %40, %38, %lean_inc.exit
  %42 = load ptr, ptr @l___private_Lean_Meta_Tactic_Grind_Inv_0__Lean_Meta_Grind_checkMatchCondParent___lambda__2___closed__1, align 8, !tbaa !4
  %43 = tail call ptr @l_Lean_Expr_cleanupAnnotations(ptr noundef %14) #4
  %44 = tail call zeroext i8 @l_Lean_Expr_isApp(ptr noundef %43) #4
  %45 = icmp eq i8 %44, 0
  br i1 %45, label %46, label %57

46:                                               ; preds = %lean_dec.exit60
  %47 = ptrtoint ptr %43 to i64
  %48 = and i64 %47, 1
  %.not76 = icmp eq i64 %48, 0
  br i1 %.not76, label %49, label %lean_dec.exit59

49:                                               ; preds = %46
  %50 = load i32, ptr %43, align 4, !tbaa !8
  %51 = icmp sgt i32 %50, 1
  br i1 %51, label %52, label %54, !prof !11

52:                                               ; preds = %49
  %53 = add nsw i32 %50, -1
  store i32 %53, ptr %43, align 4, !tbaa !8
  br label %lean_dec.exit59

54:                                               ; preds = %49
  %.not.i62 = icmp eq i32 %50, 0
  br i1 %.not.i62, label %lean_dec.exit59, label %55

55:                                               ; preds = %54
  tail call void @lean_dec_ref_cold(ptr noundef nonnull %43) #4
  br label %lean_dec.exit59

lean_dec.exit59:                                  ; preds = %55, %54, %52, %46
  %56 = tail call ptr @lean_apply_10(ptr noundef %42, ptr noundef nonnull inttoptr (i64 1 to ptr), ptr noundef %2, ptr noundef %3, ptr noundef %4, ptr noundef %5, ptr noundef %6, ptr noundef %7, ptr noundef %8, ptr noundef %9, ptr noundef %24) #4
  br label %85

57:                                               ; preds = %lean_dec.exit60
  %58 = tail call ptr @l_Lean_Expr_appArg(ptr noundef %43, ptr noundef nonnull inttoptr (i64 1 to ptr)) #4
  %59 = tail call ptr @l_Lean_Expr_appFnCleanup(ptr noundef %43, ptr noundef nonnull inttoptr (i64 1 to ptr)) #4
  %60 = load ptr, ptr @l___private_Lean_Meta_Tactic_Grind_Inv_0__Lean_Meta_Grind_checkMatchCondParent___closed__4, align 8, !tbaa !4
  %61 = tail call zeroext i8 @l_Lean_Expr_isConstOf(ptr noundef %59, ptr noundef %60) #4
  %62 = ptrtoint ptr %59 to i64
  %63 = and i64 %62, 1
  %.not74 = icmp eq i64 %63, 0
  br i1 %.not74, label %64, label %lean_dec.exit58

64:                                               ; preds = %57
  %65 = load i32, ptr %59, align 4, !tbaa !8
  %66 = icmp sgt i32 %65, 1
  br i1 %66, label %67, label %69, !prof !11

67:                                               ; preds = %64
  %68 = add nsw i32 %65, -1
  store i32 %68, ptr %59, align 4, !tbaa !8
  br label %lean_dec.exit58

69:                                               ; preds = %64
  %.not.i64 = icmp eq i32 %65, 0
  br i1 %.not.i64, label %lean_dec.exit58, label %70

70:                                               ; preds = %69
  tail call void @lean_dec_ref_cold(ptr noundef nonnull %59) #4
  br label %lean_dec.exit58

lean_dec.exit58:                                  ; preds = %70, %69, %67, %57
  %71 = icmp eq i8 %61, 0
  br i1 %71, label %72, label %83

72:                                               ; preds = %lean_dec.exit58
  %73 = ptrtoint ptr %58 to i64
  %74 = and i64 %73, 1
  %.not75 = icmp eq i64 %74, 0
  br i1 %.not75, label %75, label %lean_dec.exit

75:                                               ; preds = %72
  %76 = load i32, ptr %58, align 4, !tbaa !8
  %77 = icmp sgt i32 %76, 1
  br i1 %77, label %78, label %80, !prof !11

78:                                               ; preds = %75
  %79 = add nsw i32 %76, -1
  store i32 %79, ptr %58, align 4, !tbaa !8
  br label %lean_dec.exit

80:                                               ; preds = %75
  %.not.i66 = icmp eq i32 %76, 0
  br i1 %.not.i66, label %lean_dec.exit, label %81

81:                                               ; preds = %80
  tail call void @lean_dec_ref_cold(ptr noundef nonnull %58) #4
  br label %lean_dec.exit

lean_dec.exit:                                    ; preds = %81, %80, %78, %72
  %82 = tail call ptr @lean_apply_10(ptr noundef %42, ptr noundef nonnull inttoptr (i64 1 to ptr), ptr noundef %2, ptr noundef %3, ptr noundef %4, ptr noundef %5, ptr noundef %6, ptr noundef %7, ptr noundef %8, ptr noundef %9, ptr noundef %24) #4
  br label %85

83:                                               ; preds = %lean_dec.exit58
  %84 = tail call ptr @l___private_Lean_Meta_Tactic_Grind_Inv_0__Lean_Meta_Grind_checkMatchCondParent___lambda__2(ptr noundef %0, ptr noundef %58, ptr noundef %2, ptr noundef %3, ptr noundef %4, ptr noundef %5, ptr noundef %6, ptr noundef %7, ptr noundef %8, ptr noundef %9, ptr noundef %24)
  br label %85

85:                                               ; preds = %lean_dec.exit, %83, %lean_dec.exit59
  %.0 = phi ptr [ %56, %lean_dec.exit59 ], [ %82, %lean_dec.exit ], [ %84, %83 ]
  ret ptr %.0
}